; Function Attrs: nounwind uwtable
define void @dt_gui_presets_update_tv(ptr noundef %0, ptr noundef %1, i32 noundef %2, float noundef %3, float noundef %4) local_unnamed_addr #0 {
  %6 = alloca ptr, align 8
  call void @llvm.lifetime.start.p0(i64 8, ptr nonnull %6) #16
  %7 = load i32, ptr getelementptr inbounds nuw (i8, ptr @darktable, i64 8), align 8, !tbaa !14
  %8 = and i32 %7, 256
  %.not = icmp eq i32 %8, 0
  br i1 %.not, label %10, label %9

9:                                                ; preds = %5
  tail call void (ptr, ...) @dt_print_ext(ptr noundef nonnull @.str.46, ptr noundef nonnull @.str.43, i32 noundef 1942, ptr noundef nonnull @__FUNCTION__.dt_gui_presets_update_tv, ptr noundef nonnull @.str.99) #16
  br label %10

10:                                               ; preds = %9, %5
  %11 = load ptr, ptr getelementptr inbounds nuw (i8, ptr @darktable, i64 136), align 8, !tbaa !53
  %12 = tail call ptr @dt_database_get(ptr noundef %11) #16
  %13 = call i32 @sqlite3_prepare_v2(ptr noundef %12, ptr noundef nonnull @.str.99, i32 noundef -1, ptr noundef nonnull %6, ptr noundef null) #16
  %.not10 = icmp eq i32 %13, 0
  br i1 %.not10, label %20, label %14

14:                                               ; preds = %10
  %15 = load ptr, ptr @stderr, align 8, !tbaa !54
  %16 = load ptr, ptr getelementptr inbounds nuw (i8, ptr @darktable, i64 136), align 8, !tbaa !53
  %17 = call ptr @dt_database_get(ptr noundef %16) #16
  %18 = call ptr @sqlite3_errmsg(ptr noundef %17) #16
  %19 = call i32 (ptr, ptr, ...) @fprintf(ptr noundef %15, ptr noundef nonnull @.str.45, ptr noundef nonnull @.str.43, i32 noundef 1942, ptr noundef nonnull @__FUNCTION__.dt_gui_presets_update_tv, ptr noundef nonnull @.str.99, ptr noundef %18) #17
  br label %20

20:                                               ; preds = %14, %10
  %21 = load ptr, ptr %6, align 8, !tbaa !56
  %22 = fpext reassoc nsz arcp contract afn float %3 to double
  %23 = call i32 @sqlite3_bind_double(ptr noundef %21, i32 noundef 1, double noundef %22) #16
  %.not11 = icmp eq i32 %23, 0
  br i1 %.not11, label %30, label %24

24:                                               ; preds = %20
  %25 = load ptr, ptr @stderr, align 8, !tbaa !54
  %26 = load ptr, ptr getelementptr inbounds nuw (i8, ptr @darktable, i64 136), align 8, !tbaa !53
  %27 = call ptr @dt_database_get(ptr noundef %26) #16
  %28 = call ptr @sqlite3_errmsg(ptr noundef %27) #16
  %29 = call i32 (ptr, ptr, ...) @fprintf(ptr noundef %25, ptr noundef nonnull @.str.48, ptr noundef nonnull @.str.43, i32 noundef 1943, ptr noundef nonnull @__FUNCTION__.dt_gui_presets_update_tv, ptr noundef %28) #17
  br label %30

30:                                               ; preds = %24, %20
  %31 = load ptr, ptr %6, align 8, !tbaa !56
  %32 = fpext reassoc nsz arcp contract afn float %4 to double
  %33 = call i32 @sqlite3_bind_double(ptr noundef %31, i32 noundef 2, double noundef %32) #16
  %.not12 = icmp eq i32 %33, 0
  br i1 %.not12, label %40, label %34

34:                                               ; preds = %30
  %35 = load ptr, ptr @stderr, align 8, !tbaa !54
  %36 = load ptr, ptr getelementptr inbounds nuw (i8, ptr @darktable, i64 136), align 8, !tbaa !53
  %37 = call ptr @dt_database_get(ptr noundef %36) #16
  %38 = call ptr @sqlite3_errmsg(ptr noundef %37) #16
  %39 = call i32 (ptr, ptr, ...) @fprintf(ptr noundef %35, ptr noundef nonnull @.str.48, ptr noundef nonnull @.str.43, i32 noundef 1944, ptr noundef nonnull @__FUNCTION__.dt_gui_presets_update_tv, ptr noundef %38) #17
  br label %40

40:                                               ; preds = %34, %30
  %41 = load ptr, ptr %6, align 8, !tbaa !56
  %42 = call i32 @sqlite3_bind_text(ptr noundef %41, i32 noundef 3, ptr noundef %1, i32 noundef -1, ptr noundef nonnull inttoptr (i64 -1 to ptr)) #16
  %.not13 = icmp eq i32 %42, 0
  br i1 %.not13, label %49, label %43

43:                                               ; preds = %40
  %44 = load ptr, ptr @stderr, align 8, !tbaa !54
  %45 = load ptr, ptr getelementptr inbounds nuw (i8, ptr @darktable, i64 136), align 8, !tbaa !53
  %46 = call ptr @dt_database_get(ptr noundef %45) #16
  %47 = call ptr @sqlite3_errmsg(ptr noundef %46) #16
  %48 = call i32 (ptr, ptr, ...) @fprintf(ptr noundef %44, ptr noundef nonnull @.str.48, ptr noundef nonnull @.str.43, i32 noundef 1945, ptr noundef nonnull @__FUNCTION__.dt_gui_presets_update_tv, ptr noundef %47) #17
  br label %49

49:                                               ; preds = %43, %40
  %50 = load ptr, ptr %6, align 8, !tbaa !56
  %51 = call i32 @sqlite3_bind_int(ptr noundef %50, i32 noundef 4, i32 noundef %2) #16
  %.not14 = icmp eq i32 %51, 0
  br i1 %.not14, label %58, label %52

52:                                               ; preds = %49
  %53 = load ptr, ptr @stderr, align 8, !tbaa !54
  %54 = load ptr, ptr getelementptr inbounds nuw (i8, ptr @darktable, i64 136), align 8, !tbaa !53
  %55 = call ptr @dt_database_get(ptr noundef %54) #16
  %56 = call ptr @sqlite3_errmsg(ptr noundef %55) #16
  %57 = call i32 (ptr, ptr, ...) @fprintf(ptr noundef %53, ptr noundef nonnull @.str.48, ptr noundef nonnull @.str.43, i32 noundef 1946, ptr noundef nonnull @__FUNCTION__.dt_gui_presets_update_tv, ptr noundef %56) #17
  br label %58

58:                                               ; preds = %52, %49
  %59 = load ptr, ptr %6, align 8, !tbaa !56
  %60 = call i32 @sqlite3_bind_text(ptr noundef %59, i32 noundef 5, ptr noundef %0, i32 noundef -1, ptr noundef nonnull inttoptr (i64 -1 to ptr)) #16
  %.not15 = icmp eq i32 %60, 0
  br i1 %.not15, label %67, label %61

61:                                               ; preds = %58
  %62 = load ptr, ptr @stderr, align 8, !tbaa !54
  %63 = load ptr, ptr getelementptr inbounds nuw (i8, ptr @darktable, i64 136), align 8, !tbaa !53
  %64 = call ptr @dt_database_get(ptr noundef %63) #16
  %65 = call ptr @sqlite3_errmsg(ptr noundef %64) #16
  %66 = call i32 (ptr, ptr, ...) @fprintf(ptr noundef %62, ptr noundef nonnull @.str.48, ptr noundef nonnull @.str.43, i32 noundef 1947, ptr noundef nonnull @__FUNCTION__.dt_gui_presets_update_tv, ptr noundef %65) #17
  br label %67

67:                                               ; preds = %61, %58
  %68 = load ptr, ptr %6, align 8, !tbaa !56
  %69 = call i32 @sqlite3_step(ptr noundef %68) #16
  %70 = load ptr, ptr %6, align 8, !tbaa !56
  %71 = call i32 @sqlite3_finalize(ptr noundef %70) #16
  call void @llvm.lifetime.end.p0(i64 8, ptr nonnull %6) #16
  ret void
}